; Function Attrs: nounwind uwtable
define hidden void @je_prof_get_default_filename(ptr noundef %0, ptr noundef %1, i64 noundef %2) local_unnamed_addr #2 {
  %4 = alloca [4096 x i8], align 16
  %5 = tail call i32 @pthread_mutex_trylock(ptr noundef nonnull getelementptr inbounds nuw (i8, ptr @je_prof_dump_filename_mtx, i64 72)) #12
  %.not.i = icmp eq i32 %5, 0
  br i1 %.not.i, label %malloc_mutex_trylock_final.exit.i, label %6

malloc_mutex_trylock_final.exit.i:                ; preds = %3
  store atomic i8 1, ptr getelementptr inbounds nuw (i8, ptr @je_prof_dump_filename_mtx, i64 64) monotonic, align 8
  br label %7

6:                                                ; preds = %3
  tail call void @je_malloc_mutex_lock_slow(ptr noundef nonnull @je_prof_dump_filename_mtx) #12
  br label %7

7:                                                ; preds = %6, %malloc_mutex_trylock_final.exit.i
  %8 = load i64, ptr getelementptr inbounds nuw (i8, ptr @je_prof_dump_filename_mtx, i64 56), align 8, !tbaa !6
  %9 = add i64 %8, 1
  store i64 %9, ptr getelementptr inbounds nuw (i8, ptr @je_prof_dump_filename_mtx, i64 56), align 8, !tbaa !6
  %10 = load ptr, ptr getelementptr inbounds nuw (i8, ptr @je_prof_dump_filename_mtx, i64 48), align 8, !tbaa !16
  %.not.i.i = icmp eq ptr %10, %0
  br i1 %.not.i.i, label %malloc_mutex_lock.exit, label %11

11:                                               ; preds = %7
  store ptr %0, ptr getelementptr inbounds nuw (i8, ptr @je_prof_dump_filename_mtx, i64 48), align 8, !tbaa !16
  %12 = load i64, ptr getelementptr inbounds nuw (i8, ptr @je_prof_dump_filename_mtx, i64 40), align 8, !tbaa !17
  %13 = add i64 %12, 1
  store i64 %13, ptr getelementptr inbounds nuw (i8, ptr @je_prof_dump_filename_mtx, i64 40), align 8, !tbaa !17
  br label %malloc_mutex_lock.exit

malloc_mutex_lock.exit:                           ; preds = %7, %11
  %14 = load i8, ptr @je_opt_prof_pid_namespace, align 1, !tbaa !18, !range !20, !noundef !21
  %15 = trunc nuw i8 %14 to i1
  br i1 %15, label %16, label %26

16:                                               ; preds = %malloc_mutex_lock.exit
  call void @llvm.lifetime.start.p0(i64 4096, ptr nonnull %4) #12
  %17 = call i64 @readlink(ptr noundef nonnull @.str.4, ptr noundef nonnull %4, i64 noundef 4096) #12
  %18 = icmp sgt i64 %17, 0
  br i1 %18, label %19, label %prof_get_pid_namespace.exit

19:                                               ; preds = %16
  %20 = add nsw i64 %17, -1
  %21 = getelementptr inbounds nuw [4096 x i8], ptr %4, i64 0, i64 %20
  store i8 0, ptr %21, align 1, !tbaa !22
  %22 = call ptr @strtok(ptr noundef nonnull %4, ptr noundef nonnull @.str.5) #12
  %23 = call i64 @strtol(ptr noundef nonnull captures(none) %22, ptr noundef null, i32 noundef 10) #12
  br label %prof_get_pid_namespace.exit

prof_get_pid_namespace.exit:                      ; preds = %16, %19
  %.0.i = phi i64 [ %23, %19 ], [ 0, %16 ]
  call void @llvm.lifetime.end.p0(i64 4096, ptr nonnull %4) #12
  %24 = call i32 @getpid() #12
  %25 = call i64 (ptr, i64, ptr, ...) @je_malloc_snprintf(ptr noundef %1, i64 noundef 1, ptr noundef nonnull @.str, ptr noundef nonnull @je_opt_prof_prefix, i64 noundef %.0.i, i32 noundef %24, i64 noundef %2) #12
  br label %29

26:                                               ; preds = %malloc_mutex_lock.exit
  %27 = tail call i32 @getpid() #12
  %28 = tail call i64 (ptr, i64, ptr, ...) @je_malloc_snprintf(ptr noundef %1, i64 noundef 1, ptr noundef nonnull @.str.1, ptr noundef nonnull @je_opt_prof_prefix, i32 noundef %27, i64 noundef %2) #12
  br label %29

29:                                               ; preds = %26, %prof_get_pid_namespace.exit
  store atomic i8 0, ptr getelementptr inbounds nuw (i8, ptr @je_prof_dump_filename_mtx, i64 64) monotonic, align 8
  %30 = call i32 @pthread_mutex_unlock(ptr noundef nonnull getelementptr inbounds nuw (i8, ptr @je_prof_dump_filename_mtx, i64 72)) #12
  ret void
}